target datalayout = "e-m:e-p270:32:32-p271:32:32-p272:64:64-i64:64-i128:128-f80:128-n8:16:32:64-S128"
target triple = "x86_64-pc-linux-gnu"

%struct.archive_read_filter_vtable = type { ptr, ptr, ptr }
%struct.archive_read = type { %struct.archive, ptr, i32, i64, i64, %struct.archive_read_client, [16 x %struct.archive_read_filter_bidder], ptr, i32, i64, i32, i32, [16 x %struct.archive_format_descriptor], ptr, ptr, ptr, %struct.anon }
%struct.archive = type { i32, i32, ptr, i32, ptr, i32, i32, ptr, %struct.archive_string, ptr, i32, i32, ptr, ptr, i64, i64, i64, i8, i64 }
%struct.archive_string = type { ptr, i64, i64 }
%struct.archive_read_client = type { ptr, ptr, ptr, ptr, ptr, ptr, i32, i32, i64, ptr }
%struct.archive_read_filter_bidder = type { ptr, ptr, ptr }
%struct.archive_format_descriptor = type { ptr, ptr, ptr, ptr, ptr, ptr, ptr, ptr, ptr, ptr, ptr }
%struct.anon = type { ptr, ptr, i32, ptr, ptr }
%struct.archive_read_filter = type { i64, ptr, ptr, ptr, ptr, ptr, ptr, i32, i32, i32, ptr, i64, ptr, i64, ptr, i64, ptr, i64, i8, i8, i8 }

@.str.26 = private unnamed_addr constant [19 x i8] c"archive_read_close\00", align 1

; Function Attrs: nounwind uwtable
define internal i32 @close_filters(ptr noundef %0) #0 {
  %2 = alloca ptr, align 8
  %3 = alloca ptr, align 8
  %4 = alloca i32, align 4
  %5 = alloca ptr, align 8
  %6 = alloca i32, align 4
  store ptr %0, ptr %2, align 8, !tbaa !4
  call void @llvm.lifetime.start.p0(i64 8, ptr %3) #11
  %7 = load ptr, ptr %2, align 8, !tbaa !4
  %8 = getelementptr inbounds nuw %struct.archive_read, ptr %7, i32 0, i32 7
  %9 = load ptr, ptr %8, align 8, !tbaa !59
  store ptr %9, ptr %3, align 8, !tbaa !45
  call void @llvm.lifetime.start.p0(i64 4, ptr %4) #11
  store i32 0, ptr %4, align 4, !tbaa !38
  br label %10

10:                                               ; preds = %42, %1
  %11 = load ptr, ptr %3, align 8, !tbaa !45
  %12 = icmp ne ptr %11, null
  br i1 %12, label %13, label %49

13:                                               ; preds = %10
  call void @llvm.lifetime.start.p0(i64 8, ptr %5) #11
  %14 = load ptr, ptr %3, align 8, !tbaa !45
  %15 = getelementptr inbounds nuw %struct.archive_read_filter, ptr %14, i32 0, i32 2
  %16 = load ptr, ptr %15, align 8, !tbaa !50
  store ptr %16, ptr %5, align 8, !tbaa !45
  %17 = load ptr, ptr %3, align 8, !tbaa !45
  %18 = getelementptr inbounds nuw %struct.archive_read_filter, ptr %17, i32 0, i32 19
  %19 = load i8, ptr %18, align 1, !tbaa !84
  %20 = icmp ne i8 %19, 0
  br i1 %20, label %42, label %21

21:                                               ; preds = %13
  %22 = load ptr, ptr %3, align 8, !tbaa !45
  %23 = getelementptr inbounds nuw %struct.archive_read_filter, ptr %22, i32 0, i32 4
  %24 = load ptr, ptr %23, align 8, !tbaa !53
  %25 = icmp ne ptr %24, null
  br i1 %25, label %26, label %42

26:                                               ; preds = %21
  call void @llvm.lifetime.start.p0(i64 4, ptr %6) #11
  %27 = load ptr, ptr %3, align 8, !tbaa !45
  %28 = getelementptr inbounds nuw %struct.archive_read_filter, ptr %27, i32 0, i32 4
  %29 = load ptr, ptr %28, align 8, !tbaa !53
  %30 = getelementptr inbounds nuw %struct.archive_read_filter_vtable, ptr %29, i32 0, i32 1
  %31 = load ptr, ptr %30, align 8, !tbaa !85
  %32 = load ptr, ptr %3, align 8, !tbaa !45
  %33 = call i32 %31(ptr noundef %32)
  store i32 %33, ptr %6, align 4, !tbaa !38
  %34 = load ptr, ptr %3, align 8, !tbaa !45
  %35 = getelementptr inbounds nuw %struct.archive_read_filter, ptr %34, i32 0, i32 19
  store i8 1, ptr %35, align 1, !tbaa !84
  %36 = load i32, ptr %6, align 4, !tbaa !38
  %37 = load i32, ptr %4, align 4, !tbaa !38
  %38 = icmp slt i32 %36, %37
  br i1 %38, label %39, label %41

39:                                               ; preds = %26
  %40 = load i32, ptr %6, align 4, !tbaa !38
  store i32 %40, ptr %4, align 4, !tbaa !38
  br label %41

41:                                               ; preds = %39, %26
  call void @llvm.lifetime.end.p0(i64 4, ptr %6) #11
  br label %42

42:                                               ; preds = %41, %21, %13
  %43 = load ptr, ptr %3, align 8, !tbaa !45
  %44 = getelementptr inbounds nuw %struct.archive_read_filter, ptr %43, i32 0, i32 10
  %45 = load ptr, ptr %44, align 8, !tbaa !87
  call void @free(ptr noundef %45) #11
  %46 = load ptr, ptr %3, align 8, !tbaa !45
  %47 = getelementptr inbounds nuw %struct.archive_read_filter, ptr %46, i32 0, i32 10
  store ptr null, ptr %47, align 8, !tbaa !87
  %48 = load ptr, ptr %5, align 8, !tbaa !45
  store ptr %48, ptr %3, align 8, !tbaa !45
  call void @llvm.lifetime.end.p0(i64 8, ptr %5) #11
  br label %10, !llvm.loop !88

49:                                               ; preds = %10
  %50 = load i32, ptr %4, align 4, !tbaa !38
  call void @llvm.lifetime.end.p0(i64 4, ptr %4) #11
  call void @llvm.lifetime.end.p0(i64 8, ptr %3) #11
  ret i32 %50
}

; Function Attrs: nounwind uwtable
define internal i32 @_archive_read_close(ptr noundef %0) #0 {
  %2 = alloca i32, align 4
  %3 = alloca ptr, align 8
  %4 = alloca ptr, align 8
  %5 = alloca i32, align 4
  %6 = alloca i32, align 4
  %7 = alloca i32, align 4
  %8 = alloca i32, align 4
  store ptr %0, ptr %3, align 8, !tbaa !31
  call void @llvm.lifetime.start.p0(i64 8, ptr %4) #11
  %9 = load ptr, ptr %3, align 8, !tbaa !31
  store ptr %9, ptr %4, align 8, !tbaa !4
  call void @llvm.lifetime.start.p0(i64 4, ptr %5) #11
  store i32 0, ptr %5, align 4, !tbaa !38
  call void @llvm.lifetime.start.p0(i64 4, ptr %6) #11
  store i32 0, ptr %6, align 4, !tbaa !38
  br label %10

10:                                               ; preds = %1
  call void @llvm.lifetime.start.p0(i64 4, ptr %7) #11
  %11 = load ptr, ptr %4, align 8, !tbaa !4
  %12 = getelementptr inbounds nuw %struct.archive_read, ptr %11, i32 0, i32 0
  %13 = call i32 @__archive_check_magic(ptr noundef %12, i32 noundef 14594245, i32 noundef 65535, ptr noundef @.str.26)
  store i32 %13, ptr %7, align 4, !tbaa !38
  %14 = load i32, ptr %7, align 4, !tbaa !38
  %15 = icmp eq i32 %14, -30
  br i1 %15, label %16, label %17

16:                                               ; preds = %10
  store i32 -30, ptr %2, align 4
  store i32 1, ptr %8, align 4
  br label %18

17:                                               ; preds = %10
  store i32 0, ptr %8, align 4
  br label %18

18:                                               ; preds = %17, %16
  call void @llvm.lifetime.end.p0(i64 4, ptr %7) #11
  %19 = load i32, ptr %8, align 4
  switch i32 %19, label %44 [
    i32 0, label %20
  ]

20:                                               ; preds = %18
  br label %21

21:                                               ; preds = %20
  br label %22

22:                                               ; preds = %21
  %23 = load ptr, ptr %4, align 8, !tbaa !4
  %24 = getelementptr inbounds nuw %struct.archive_read, ptr %23, i32 0, i32 0
  %25 = getelementptr inbounds nuw %struct.archive, ptr %24, i32 0, i32 1
  %26 = load i32, ptr %25, align 4, !tbaa !27
  %27 = icmp eq i32 %26, 32
  br i1 %27, label %28, label %29

28:                                               ; preds = %22
  store i32 0, ptr %2, align 4
  store i32 1, ptr %8, align 4
  br label %44

29:                                               ; preds = %22
  %30 = load ptr, ptr %4, align 8, !tbaa !4
  %31 = getelementptr inbounds nuw %struct.archive_read, ptr %30, i32 0, i32 0
  call void @archive_clear_error(ptr noundef %31)
  %32 = load ptr, ptr %4, align 8, !tbaa !4
  %33 = getelementptr inbounds nuw %struct.archive_read, ptr %32, i32 0, i32 0
  %34 = getelementptr inbounds nuw %struct.archive, ptr %33, i32 0, i32 1
  store i32 32, ptr %34, align 4, !tbaa !27
  %35 = load ptr, ptr %4, align 8, !tbaa !4
  %36 = call i32 @close_filters(ptr noundef %35)
  store i32 %36, ptr %6, align 4, !tbaa !38
  %37 = load i32, ptr %6, align 4, !tbaa !38
  %38 = load i32, ptr %5, align 4, !tbaa !38
  %39 = icmp slt i32 %37, %38
  br i1 %39, label %40, label %42

40:                                               ; preds = %29
  %41 = load i32, ptr %6, align 4, !tbaa !38
  store i32 %41, ptr %5, align 4, !tbaa !38
  br label %42

42:                                               ; preds = %40, %29
  %43 = load i32, ptr %5, align 4, !tbaa !38
  store i32 %43, ptr %2, align 4
  store i32 1, ptr %8, align 4
  br label %44

44:                                               ; preds = %42, %28, %18
  call void @llvm.lifetime.end.p0(i64 4, ptr %6) #11
  call void @llvm.lifetime.end.p0(i64 4, ptr %5) #11
  call void @llvm.lifetime.end.p0(i64 8, ptr %4) #11
  %45 = load i32, ptr %2, align 4
  ret i32 %45
}